; Function Attrs: mustprogress nounwind uwtable
define hidden void @_ZN20ShenandoahBarrierSet21clone_barrier_runtimeEP7oopDesc(ptr noundef nonnull align 8 dereferenceable(1064) %0, ptr noundef %1) local_unnamed_addr #0 align 2 {
  %3 = getelementptr inbounds i8, ptr %0, i64 64
  %4 = load ptr, ptr %3, align 8
  %5 = getelementptr inbounds i8, ptr %4, i64 769
  %6 = load volatile i8, ptr %5, align 1
  tail call void asm sideeffect "", "~{memory},~{dirflag},~{fpsr},~{flags}"() #12, !srcloc !6
  %7 = and i8 %6, 1
  %.not = icmp eq i8 %7, 0
  br i1 %.not, label %8, label %16

8:                                                ; preds = %2
  %9 = load i8, ptr @ShenandoahIUBarrier, align 1
  %10 = trunc i8 %9 to i1
  br i1 %10, label %11, label %17

11:                                               ; preds = %8
  %12 = load ptr, ptr %3, align 8
  %13 = getelementptr inbounds i8, ptr %12, i64 769
  %14 = load volatile i8, ptr %13, align 1
  tail call void asm sideeffect "", "~{memory},~{dirflag},~{fpsr},~{flags}"() #12, !srcloc !6
  %15 = and i8 %14, 2
  %.not2 = icmp eq i8 %15, 0
  br i1 %.not2, label %17, label %16

16:                                               ; preds = %11, %2
  tail call void @_ZN20ShenandoahBarrierSet13clone_barrierEP7oopDesc(ptr noundef nonnull align 8 dereferenceable(1064) %0, ptr noundef %1)
  br label %17

17:                                               ; preds = %16, %11, %8
  ret void
}